; ModuleID = 'source-C-CXX/60/1099.cpp'
source_filename = "source-C-CXX/60/1099.cpp"
target datalayout = "e-m:e-p270:32:32-p271:32:32-p272:64:64-i64:64-f80:128-n8:16:32:64-S128"
target triple = "x86_64-pc-linux-gnu"

%"class.std::ios_base::Init" = type { i8 }
%"class.std::basic_istream" = type { i32 (...)**, i64, %"class.std::basic_ios" }
%"class.std::basic_ios" = type { %"class.std::ios_base", %"class.std::basic_ostream"*, i8, i8, %"class.std::basic_streambuf"*, %"class.std::ctype"*, %"class.std::num_put"*, %"class.std::num_get"* }
%"class.std::ios_base" = type { i32 (...)**, i64, i64, i32, i32, i32, %"struct.std::ios_base::_Callback_list"*, %"struct.std::ios_base::_Words", [8 x %"struct.std::ios_base::_Words"], i32, %"struct.std::ios_base::_Words"*, %"class.std::locale" }
%"struct.std::ios_base::_Callback_list" = type { %"struct.std::ios_base::_Callback_list"*, void (i32, %"class.std::ios_base"*, i32)*, i32, i32 }
%"struct.std::ios_base::_Words" = type { i8*, i64 }
%"class.std::locale" = type { %"class.std::locale::_Impl"* }
%"class.std::locale::_Impl" = type { i32, %"class.std::locale::facet"**, i64, %"class.std::locale::facet"**, i8** }
%"class.std::locale::facet" = type <{ i32 (...)**, i32, [4 x i8] }>
%"class.std::basic_ostream" = type { i32 (...)**, %"class.std::basic_ios" }
%"class.std::basic_streambuf" = type { i32 (...)**, i8*, i8*, i8*, i8*, i8*, i8*, %"class.std::locale" }
%"class.std::ctype" = type <{ %"class.std::locale::facet.base", [4 x i8], %struct.__locale_struct*, i8, [7 x i8], i32*, i32*, i16*, i8, [256 x i8], [256 x i8], i8, [6 x i8] }>
%"class.std::locale::facet.base" = type <{ i32 (...)**, i32 }>
%struct.__locale_struct = type { [13 x %struct.__locale_data*], i16*, i32*, i32*, [13 x i8*] }
%struct.__locale_data = type opaque
%"class.std::num_put" = type { %"class.std::locale::facet.base", [4 x i8] }
%"class.std::num_get" = type { %"class.std::locale::facet.base", [4 x i8] }

@_ZStL8__ioinit = internal global %"class.std::ios_base::Init" zeroinitializer, align 1
@__dso_handle = external hidden global i8
@_ZSt3cin = external global %"class.std::basic_istream", align 8
@_ZSt4cout = external global %"class.std::basic_ostream", align 8
@llvm.global_ctors = appending global [1 x { i32, void ()*, i8* }] [{ i32, void ()*, i8* } { i32 65535, void ()* @_GLOBAL__sub_I_1099.cpp, i8* null }]

declare void @_ZNSt8ios_base4InitC1Ev(%"class.std::ios_base::Init"* nonnull align 1 dereferenceable(1)) unnamed_addr #0

; Function Attrs: nounwind
declare void @_ZNSt8ios_base4InitD1Ev(%"class.std::ios_base::Init"* nonnull align 1 dereferenceable(1)) unnamed_addr #1

; Function Attrs: nofree nounwind
declare i32 @__cxa_atexit(void (i8*)*, i8*, i8*) local_unnamed_addr #2

; Function Attrs: mustprogress norecurse sspstrong uwtable
define dso_local i32 @main() local_unnamed_addr #3 {
  %1 = alloca i32, align 4
  %2 = bitcast i32* %1 to i8*
  call void @llvm.lifetime.start.p0i8(i64 4, i8* nonnull %2) #8
  %3 = call nonnull align 8 dereferenceable(16) %"class.std::basic_istream"* @_ZNSirsERi(%"class.std::basic_istream"* nonnull align 8 dereferenceable(16) @_ZSt3cin, i32* nonnull align 4 dereferenceable(4) %1)
  %4 = load i32, i32* %1, align 4, !tbaa !5
  %5 = zext i32 %4 to i64
  %6 = call i8* @llvm.stacksave()
  %7 = alloca i32, i64 %5, align 16
  %8 = load i32, i32* %1, align 4, !tbaa !5
  %9 = icmp sgt i32 %8, 0
  br i1 %9, label %25, label %86

10:                                               ; preds = %25
  %11 = zext i32 %32 to i64
  %12 = alloca i32, i64 %11, align 16
  store i32 1, i32* %12, align 16, !tbaa !5
  %13 = getelementptr inbounds i32, i32* %12, i64 1
  store i32 1, i32* %13, align 4, !tbaa !5
  %14 = icmp sgt i32 %32, 2
  br i1 %14, label %15, label %55

15:                                               ; preds = %10
  %16 = getelementptr inbounds i32, i32* %12, i64 2
  store i32 2, i32* %16, align 8, !tbaa !5
  %17 = icmp eq i32 %32, 3
  br i1 %17, label %55, label %18, !llvm.loop !9

18:                                               ; preds = %15
  %19 = add nsw i64 %11, -3
  %20 = add nsw i64 %11, -4
  %21 = and i64 %19, 3
  %22 = icmp ult i64 %20, 3
  br i1 %22, label %37, label %23

23:                                               ; preds = %18
  %24 = and i64 %19, -4
  br label %57

25:                                               ; preds = %0, %25
  %26 = phi i64 [ %33, %25 ], [ 0, %0 ]
  %27 = phi i32 [ %32, %25 ], [ 0, %0 ]
  %28 = getelementptr inbounds i32, i32* %7, i64 %26
  %29 = call nonnull align 8 dereferenceable(16) %"class.std::basic_istream"* @_ZNSirsERi(%"class.std::basic_istream"* nonnull align 8 dereferenceable(16) @_ZSt3cin, i32* nonnull align 4 dereferenceable(4) %28)
  %30 = load i32, i32* %28, align 4, !tbaa !5
  %31 = icmp slt i32 %30, %27
  %32 = select i1 %31, i32 %27, i32 %30
  %33 = add nuw nsw i64 %26, 1
  %34 = load i32, i32* %1, align 4, !tbaa !5
  %35 = sext i32 %34 to i64
  %36 = icmp slt i64 %33, %35
  br i1 %36, label %25, label %10, !llvm.loop !11

37:                                               ; preds = %57, %18
  %38 = phi i64 [ 3, %18 ], [ %83, %57 ]
  %39 = phi i32 [ 2, %18 ], [ %81, %57 ]
  %40 = phi i64 [ 2, %18 ], [ %78, %57 ]
  %41 = icmp eq i64 %21, 0
  br i1 %41, label %55, label %42

42:                                               ; preds = %37, %42
  %43 = phi i64 [ %52, %42 ], [ %38, %37 ]
  %44 = phi i32 [ %50, %42 ], [ %39, %37 ]
  %45 = phi i64 [ %43, %42 ], [ %40, %37 ]
  %46 = phi i64 [ %53, %42 ], [ %21, %37 ]
  %47 = add nsw i64 %45, -1
  %48 = getelementptr inbounds i32, i32* %12, i64 %47
  %49 = load i32, i32* %48, align 4, !tbaa !5
  %50 = add nsw i32 %49, %44
  %51 = getelementptr inbounds i32, i32* %12, i64 %43
  store i32 %50, i32* %51, align 4, !tbaa !5
  %52 = add nuw nsw i64 %43, 1
  %53 = add i64 %46, -1
  %54 = icmp eq i64 %53, 0
  br i1 %54, label %55, label %42, !llvm.loop !12

55:                                               ; preds = %37, %42, %15, %10
  %56 = icmp sgt i32 %34, 0
  br i1 %56, label %87, label %86

57:                                               ; preds = %57, %23
  %58 = phi i64 [ 3, %23 ], [ %83, %57 ]
  %59 = phi i32 [ 2, %23 ], [ %81, %57 ]
  %60 = phi i64 [ 2, %23 ], [ %78, %57 ]
  %61 = phi i64 [ %24, %23 ], [ %84, %57 ]
  %62 = add nsw i64 %60, -1
  %63 = getelementptr inbounds i32, i32* %12, i64 %62
  %64 = load i32, i32* %63, align 4, !tbaa !5
  %65 = add nsw i32 %64, %59
  %66 = getelementptr inbounds i32, i32* %12, i64 %58
  store i32 %65, i32* %66, align 4, !tbaa !5
  %67 = add nuw nsw i64 %58, 1
  %68 = add nsw i64 %58, -1
  %69 = getelementptr inbounds i32, i32* %12, i64 %68
  %70 = load i32, i32* %69, align 4, !tbaa !5
  %71 = add nsw i32 %70, %65
  %72 = getelementptr inbounds i32, i32* %12, i64 %67
  store i32 %71, i32* %72, align 4, !tbaa !5
  %73 = add nuw nsw i64 %58, 2
  %74 = getelementptr inbounds i32, i32* %12, i64 %58
  %75 = load i32, i32* %74, align 4, !tbaa !5
  %76 = add nsw i32 %75, %71
  %77 = getelementptr inbounds i32, i32* %12, i64 %73
  store i32 %76, i32* %77, align 4, !tbaa !5
  %78 = add nuw nsw i64 %58, 3
  %79 = getelementptr inbounds i32, i32* %12, i64 %67
  %80 = load i32, i32* %79, align 4, !tbaa !5
  %81 = add nsw i32 %80, %76
  %82 = getelementptr inbounds i32, i32* %12, i64 %78
  store i32 %81, i32* %82, align 4, !tbaa !5
  %83 = add nuw nsw i64 %58, 4
  %84 = add i64 %61, -4
  %85 = icmp eq i64 %84, 0
  br i1 %85, label %37, label %57, !llvm.loop !9

86:                                               ; preds = %121, %0, %55
  call void @llvm.stackrestore(i8* %6)
  call void @llvm.lifetime.end.p0i8(i64 4, i8* nonnull %2) #8
  ret i32 0

87:                                               ; preds = %55, %121
  %88 = phi i64 [ %125, %121 ], [ 0, %55 ]
  %89 = getelementptr inbounds i32, i32* %7, i64 %88
  %90 = load i32, i32* %89, align 4, !tbaa !5
  %91 = add nsw i32 %90, -1
  %92 = sext i32 %91 to i64
  %93 = getelementptr inbounds i32, i32* %12, i64 %92
  %94 = load i32, i32* %93, align 4, !tbaa !5
  %95 = call nonnull align 8 dereferenceable(8) %"class.std::basic_ostream"* @_ZNSolsEi(%"class.std::basic_ostream"* nonnull align 8 dereferenceable(8) @_ZSt4cout, i32 %94)
  %96 = bitcast %"class.std::basic_ostream"* %95 to i8**
  %97 = load i8*, i8** %96, align 8, !tbaa !14
  %98 = getelementptr i8, i8* %97, i64 -24
  %99 = bitcast i8* %98 to i64*
  %100 = load i64, i64* %99, align 8
  %101 = bitcast %"class.std::basic_ostream"* %95 to i8*
  %102 = add nsw i64 %100, 240
  %103 = getelementptr inbounds i8, i8* %101, i64 %102
  %104 = bitcast i8* %103 to %"class.std::ctype"**
  %105 = load %"class.std::ctype"*, %"class.std::ctype"** %104, align 8, !tbaa !16
  %106 = icmp eq %"class.std::ctype"* %105, null
  br i1 %106, label %107, label %108

107:                                              ; preds = %87
  call void @_ZSt16__throw_bad_castv() #9
  unreachable

108:                                              ; preds = %87
  %109 = getelementptr inbounds %"class.std::ctype", %"class.std::ctype"* %105, i64 0, i32 8
  %110 = load i8, i8* %109, align 8, !tbaa !20
  %111 = icmp eq i8 %110, 0
  br i1 %111, label %115, label %112

112:                                              ; preds = %108
  %113 = getelementptr inbounds %"class.std::ctype", %"class.std::ctype"* %105, i64 0, i32 9, i64 10
  %114 = load i8, i8* %113, align 1, !tbaa !22
  br label %121

115:                                              ; preds = %108
  call void @_ZNKSt5ctypeIcE13_M_widen_initEv(%"class.std::ctype"* nonnull align 8 dereferenceable(570) %105)
  %116 = bitcast %"class.std::ctype"* %105 to i8 (%"class.std::ctype"*, i8)***
  %117 = load i8 (%"class.std::ctype"*, i8)**, i8 (%"class.std::ctype"*, i8)*** %116, align 8, !tbaa !14
  %118 = getelementptr inbounds i8 (%"class.std::ctype"*, i8)*, i8 (%"class.std::ctype"*, i8)** %117, i64 6
  %119 = load i8 (%"class.std::ctype"*, i8)*, i8 (%"class.std::ctype"*, i8)** %118, align 8
  %120 = call signext i8 %119(%"class.std::ctype"* nonnull align 8 dereferenceable(570) %105, i8 signext 10)
  br label %121

121:                                              ; preds = %112, %115
  %122 = phi i8 [ %114, %112 ], [ %120, %115 ]
  %123 = call nonnull align 8 dereferenceable(8) %"class.std::basic_ostream"* @_ZNSo3putEc(%"class.std::basic_ostream"* nonnull align 8 dereferenceable(8) %95, i8 signext %122)
  %124 = call nonnull align 8 dereferenceable(8) %"class.std::basic_ostream"* @_ZNSo5flushEv(%"class.std::basic_ostream"* nonnull align 8 dereferenceable(8) %123)
  %125 = add nuw nsw i64 %88, 1
  %126 = load i32, i32* %1, align 4, !tbaa !5
  %127 = sext i32 %126 to i64
  %128 = icmp slt i64 %125, %127
  br i1 %128, label %87, label %86, !llvm.loop !23
}

; Function Attrs: argmemonly mustprogress nofree nosync nounwind willreturn
declare void @llvm.lifetime.start.p0i8(i64 immarg, i8* nocapture) #4

declare nonnull align 8 dereferenceable(16) %"class.std::basic_istream"* @_ZNSirsERi(%"class.std::basic_istream"* nonnull align 8 dereferenceable(16), i32* nonnull align 4 dereferenceable(4)) local_unnamed_addr #0

; Function Attrs: mustprogress nofree nosync nounwind willreturn
declare i8* @llvm.stacksave() #5

; Function Attrs: argmemonly mustprogress nofree nosync nounwind willreturn
declare void @llvm.lifetime.end.p0i8(i64 immarg, i8* nocapture) #4

declare nonnull align 8 dereferenceable(8) %"class.std::basic_ostream"* @_ZNSolsEi(%"class.std::basic_ostream"* nonnull align 8 dereferenceable(8), i32) local_unnamed_addr #0

; Function Attrs: mustprogress nofree nosync nounwind willreturn
declare void @llvm.stackrestore(i8*) #5

declare nonnull align 8 dereferenceable(8) %"class.std::basic_ostream"* @_ZNSo3putEc(%"class.std::basic_ostream"* nonnull align 8 dereferenceable(8), i8 signext) local_unnamed_addr #0

declare nonnull align 8 dereferenceable(8) %"class.std::basic_ostream"* @_ZNSo5flushEv(%"class.std::basic_ostream"* nonnull align 8 dereferenceable(8)) local_unnamed_addr #0

; Function Attrs: noreturn
declare void @_ZSt16__throw_bad_castv() local_unnamed_addr #6

declare void @_ZNKSt5ctypeIcE13_M_widen_initEv(%"class.std::ctype"* nonnull align 8 dereferenceable(570)) local_unnamed_addr #0

; Function Attrs: sspstrong uwtable
define internal void @_GLOBAL__sub_I_1099.cpp() #7 section ".text.startup" {
  tail call void @_ZNSt8ios_base4InitC1Ev(%"class.std::ios_base::Init"* nonnull align 1 dereferenceable(1) @_ZStL8__ioinit)
  %1 = tail call i32 @__cxa_atexit(void (i8*)* bitcast (void (%"class.std::ios_base::Init"*)* @_ZNSt8ios_base4InitD1Ev to void (i8*)*), i8* getelementptr inbounds (%"class.std::ios_base::Init", %"class.std::ios_base::Init"* @_ZStL8__ioinit, i64 0, i32 0), i8* nonnull @__dso_handle) #8
  ret void
}


!llvm.module.flags = !{!0, !1, !2, !3}
!llvm.ident = !{!4}

!0 = !{i32 1, !"wchar_size", i32 4}
!1 = !{i32 7, !"PIC Level", i32 2}
!2 = !{i32 7, !"PIE Level", i32 2}
!3 = !{i32 7, !"uwtable", i32 1}
!4 = !{!"clang version 13.0.0"}
!5 = !{!6, !6, i64 0}
!6 = !{!"int", !7, i64 0}
!7 = !{!"omnipotent char", !8, i64 0}
!8 = !{!"Simple C++ TBAA"}
!9 = distinct !{!9, !10}
!10 = !{!"llvm.loop.mustprogress"}
!11 = distinct !{!11, !10}
!12 = distinct !{!12, !13}
!13 = !{!"llvm.loop.unroll.disable"}
!14 = !{!15, !15, i64 0}
!15 = !{!"vtable pointer", !8, i64 0}
!16 = !{!17, !18, i64 240}
!17 = !{!"_ZTSSt9basic_iosIcSt11char_traitsIcEE", !18, i64 216, !7, i64 224, !19, i64 225, !18, i64 232, !18, i64 240, !18, i64 248, !18, i64 256}
!18 = !{!"any pointer", !7, i64 0}
!19 = !{!"bool", !7, i64 0}
!20 = !{!21, !7, i64 56}
!21 = !{!"_ZTSSt5ctypeIcE", !18, i64 16, !19, i64 24, !18, i64 32, !18, i64 40, !18, i64 48, !7, i64 56, !7, i64 57, !7, i64 313, !7, i64 569}
!22 = !{!7, !7, i64 0}
!23 = distinct !{!23, !10}
